target datalayout = "e-m:e-p270:32:32-p271:32:32-p272:64:64-i64:64-i128:128-f80:128-n8:16:32:64-S128"
target triple = "x86_64-pc-linux-gnu"

%struct.Vec_Wrd_t_ = type { i32, i32, ptr }

@.str.2 = private unnamed_addr constant [3 x i8] c"%d\00", align 1
@.str.3 = private unnamed_addr constant [2 x i8] c"\0A\00", align 1
@.str.5 = private unnamed_addr constant [7 x i8] c"%2d : \00", align 1
@.str.6 = private unnamed_addr constant [6 x i8] c"%6d  \00", align 1

; Function Attrs: inlinehint nounwind uwtable
define internal void @Vec_WrdShrink(ptr noundef %0, i32 noundef %1) #2 {
  %3 = alloca ptr, align 8
  %4 = alloca i32, align 4
  store ptr %0, ptr %3, align 8, !tbaa !7
  store i32 %1, ptr %4, align 4, !tbaa !3
  %5 = load i32, ptr %4, align 4, !tbaa !3
  %6 = load ptr, ptr %3, align 8, !tbaa !7
  %7 = getelementptr inbounds nuw %struct.Vec_Wrd_t_, ptr %6, i32 0, i32 1
  store i32 %5, ptr %7, align 4, !tbaa !12
  ret void
}

; Function Attrs: inlinehint nounwind uwtable
define internal void @Vec_WrdWriteEntry(ptr noundef %0, i32 noundef %1, i64 noundef %2) #2 {
  %4 = alloca ptr, align 8
  %5 = alloca i32, align 4
  %6 = alloca i64, align 8
  store ptr %0, ptr %4, align 8, !tbaa !7
  store i32 %1, ptr %5, align 4, !tbaa !3
  store i64 %2, ptr %6, align 8, !tbaa !17
  %7 = load i64, ptr %6, align 8, !tbaa !17
  %8 = load ptr, ptr %4, align 8, !tbaa !7
  %9 = getelementptr inbounds nuw %struct.Vec_Wrd_t_, ptr %8, i32 0, i32 2
  %10 = load ptr, ptr %9, align 8, !tbaa !16
  %11 = load i32, ptr %5, align 4, !tbaa !3
  %12 = sext i32 %11 to i64
  %13 = getelementptr inbounds i64, ptr %10, i64 %12
  store i64 %7, ptr %13, align 8, !tbaa !17
  ret void
}

; Function Attrs: inlinehint nounwind uwtable
define internal i64 @Vec_WrdEntry(ptr noundef %0, i32 noundef %1) #2 {
  %3 = alloca ptr, align 8
  %4 = alloca i32, align 4
  store ptr %0, ptr %3, align 8, !tbaa !7
  store i32 %1, ptr %4, align 4, !tbaa !3
  %5 = load ptr, ptr %3, align 8, !tbaa !7
  %6 = getelementptr inbounds nuw %struct.Vec_Wrd_t_, ptr %5, i32 0, i32 2
  %7 = load ptr, ptr %6, align 8, !tbaa !16
  %8 = load i32, ptr %4, align 4, !tbaa !3
  %9 = sext i32 %8 to i64
  %10 = getelementptr inbounds i64, ptr %7, i64 %9
  %11 = load i64, ptr %10, align 8, !tbaa !17
  ret i64 %11
}

; Function Attrs: nounwind uwtable
define void @Abc_SuppPrintMask(i64 noundef %0, i32 noundef %1) #0 {
  %3 = alloca i64, align 8
  %4 = alloca i32, align 4
  %5 = alloca i32, align 4
  store i64 %0, ptr %3, align 8, !tbaa !17
  store i32 %1, ptr %4, align 4, !tbaa !3
  call void @llvm.lifetime.start.p0(i64 4, ptr %5) #13
  store i32 0, ptr %5, align 4, !tbaa !3
  br label %6

6:                                                ; preds = %18, %2
  %7 = load i32, ptr %5, align 4, !tbaa !3
  %8 = load i32, ptr %4, align 4, !tbaa !3
  %9 = icmp slt i32 %7, %8
  br i1 %9, label %10, label %21

10:                                               ; preds = %6
  %11 = load i64, ptr %3, align 8, !tbaa !17
  %12 = load i32, ptr %5, align 4, !tbaa !3
  %13 = zext i32 %12 to i64
  %14 = lshr i64 %11, %13
  %15 = and i64 %14, 1
  %16 = trunc i64 %15 to i32
  %17 = call i32 (ptr, ...) @printf(ptr noundef @.str.2, i32 noundef %16)
  br label %18

18:                                               ; preds = %10
  %19 = load i32, ptr %5, align 4, !tbaa !3
  %20 = add nsw i32 %19, 1
  store i32 %20, ptr %5, align 4, !tbaa !3
  br label %6, !llvm.loop !31

21:                                               ; preds = %6
  %22 = call i32 (ptr, ...) @printf(ptr noundef @.str.3)
  call void @llvm.lifetime.end.p0(i64 4, ptr %5) #13
  ret void
}

; Function Attrs: nounwind uwtable
define void @Abc_SuppGenFilter(ptr noundef %0, i32 noundef %1) #0 {
  %3 = alloca ptr, align 8
  %4 = alloca i32, align 4
  %5 = alloca i64, align 8
  %6 = alloca i32, align 4
  %7 = alloca i32, align 4
  store ptr %0, ptr %3, align 8, !tbaa !7
  store i32 %1, ptr %4, align 4, !tbaa !3
  call void @llvm.lifetime.start.p0(i64 8, ptr %5) #13
  call void @llvm.lifetime.start.p0(i64 4, ptr %6) #13
  call void @llvm.lifetime.start.p0(i64 4, ptr %7) #13
  store i32 0, ptr %7, align 4, !tbaa !3
  store i32 0, ptr %6, align 4, !tbaa !3
  br label %8

8:                                                ; preds = %32, %2
  %9 = load i32, ptr %6, align 4, !tbaa !3
  %10 = load ptr, ptr %3, align 8, !tbaa !7
  %11 = call i32 @Vec_WrdSize(ptr noundef %10)
  %12 = icmp slt i32 %9, %11
  br i1 %12, label %13, label %17

13:                                               ; preds = %8
  %14 = load ptr, ptr %3, align 8, !tbaa !7
  %15 = load i32, ptr %6, align 4, !tbaa !3
  %16 = call i64 @Vec_WrdEntry(ptr noundef %14, i32 noundef %15)
  store i64 %16, ptr %5, align 8, !tbaa !17
  br label %17

17:                                               ; preds = %13, %8
  %18 = phi i1 [ false, %8 ], [ true, %13 ]
  br i1 %18, label %19, label %35

19:                                               ; preds = %17
  %20 = load i64, ptr %5, align 8, !tbaa !17
  %21 = load i32, ptr %4, align 4, !tbaa !3
  %22 = zext i32 %21 to i64
  %23 = lshr i64 %20, %22
  %24 = and i64 %23, 1
  %25 = icmp eq i64 %24, 0
  br i1 %25, label %26, label %31

26:                                               ; preds = %19
  %27 = load ptr, ptr %3, align 8, !tbaa !7
  %28 = load i32, ptr %7, align 4, !tbaa !3
  %29 = add nsw i32 %28, 1
  store i32 %29, ptr %7, align 4, !tbaa !3
  %30 = load i64, ptr %5, align 8, !tbaa !17
  call void @Vec_WrdWriteEntry(ptr noundef %27, i32 noundef %28, i64 noundef %30)
  br label %31

31:                                               ; preds = %26, %19
  br label %32

32:                                               ; preds = %31
  %33 = load i32, ptr %6, align 4, !tbaa !3
  %34 = add nsw i32 %33, 1
  store i32 %34, ptr %6, align 4, !tbaa !3
  br label %8, !llvm.loop !37

35:                                               ; preds = %17
  %36 = load ptr, ptr %3, align 8, !tbaa !7
  %37 = load i32, ptr %7, align 4, !tbaa !3
  call void @Vec_WrdShrink(ptr noundef %36, i32 noundef %37)
  call void @llvm.lifetime.end.p0(i64 4, ptr %7) #13
  call void @llvm.lifetime.end.p0(i64 4, ptr %6) #13
  call void @llvm.lifetime.end.p0(i64 8, ptr %5) #13
  ret void
}

; Function Attrs: inlinehint nounwind uwtable
define internal i32 @Vec_WrdSize(ptr noundef %0) #2 {
  %2 = alloca ptr, align 8
  store ptr %0, ptr %2, align 8, !tbaa !7
  %3 = load ptr, ptr %2, align 8, !tbaa !7
  %4 = getelementptr inbounds nuw %struct.Vec_Wrd_t_, ptr %3, i32 0, i32 1
  %5 = load i32, ptr %4, align 4, !tbaa !12
  ret i32 %5
}

; Function Attrs: nounwind uwtable
define i32 @Abc_SuppMinimize(ptr noundef %0, ptr noundef %1, i32 noundef %2, i32 noundef %3) #0 {
  %5 = alloca ptr, align 8
  %6 = alloca ptr, align 8
  %7 = alloca i32, align 4
  %8 = alloca i32, align 4
  %9 = alloca i32, align 4
  store ptr %0, ptr %5, align 8, !tbaa !19
  store ptr %1, ptr %6, align 8, !tbaa !7
  store i32 %2, ptr %7, align 4, !tbaa !3
  store i32 %3, ptr %8, align 4, !tbaa !3
  call void @llvm.lifetime.start.p0(i64 4, ptr %9) #13
  store i32 0, ptr %9, align 4, !tbaa !3
  br label %10

10:                                               ; preds = %39, %4
  %11 = load ptr, ptr %6, align 8, !tbaa !7
  %12 = call i32 @Vec_WrdSize(ptr noundef %11)
  %13 = icmp sgt i32 %12, 0
  br i1 %13, label %14, label %42

14:                                               ; preds = %10
  %15 = load ptr, ptr %6, align 8, !tbaa !7
  %16 = load i32, ptr %7, align 4, !tbaa !3
  %17 = call i64 @Abc_SuppFindOne(ptr noundef %15, i32 noundef %16)
  %18 = load ptr, ptr %5, align 8, !tbaa !19
  %19 = load i32, ptr %9, align 4, !tbaa !3
  %20 = sext i32 %19 to i64
  %21 = getelementptr inbounds i64, ptr %18, i64 %20
  store i64 %17, ptr %21, align 8, !tbaa !17
  %22 = load ptr, ptr %6, align 8, !tbaa !7
  %23 = load i32, ptr %7, align 4, !tbaa !3
  call void @Abc_SuppGenFilter(ptr noundef %22, i32 noundef %23)
  %24 = load i32, ptr %8, align 4, !tbaa !3
  %25 = icmp ne i32 %24, 0
  br i1 %25, label %27, label %26

26:                                               ; preds = %14
  br label %39

27:                                               ; preds = %14
  %28 = load i32, ptr %9, align 4, !tbaa !3
  %29 = call i32 (ptr, ...) @printf(ptr noundef @.str.5, i32 noundef %28)
  %30 = load ptr, ptr %6, align 8, !tbaa !7
  %31 = call i32 @Vec_WrdSize(ptr noundef %30)
  %32 = call i32 (ptr, ...) @printf(ptr noundef @.str.6, i32 noundef %31)
  %33 = load ptr, ptr %5, align 8, !tbaa !19
  %34 = load i32, ptr %9, align 4, !tbaa !3
  %35 = sext i32 %34 to i64
  %36 = getelementptr inbounds i64, ptr %33, i64 %35
  %37 = load i64, ptr %36, align 8, !tbaa !17
  %38 = load i32, ptr %7, align 4, !tbaa !3
  call void @Abc_SuppPrintMask(i64 noundef %37, i32 noundef %38)
  br label %39

39:                                               ; preds = %27, %26
  %40 = load i32, ptr %9, align 4, !tbaa !3
  %41 = add nsw i32 %40, 1
  store i32 %41, ptr %9, align 4, !tbaa !3
  br label %10, !llvm.loop !38

42:                                               ; preds = %10
  %43 = load i32, ptr %9, align 4, !tbaa !3
  call void @llvm.lifetime.end.p0(i64 4, ptr %9) #13
  ret i32 %43
}