; Function Attrs: nofree nounwind uwtable
define i32 @Abc_SuppMinimize(ptr noundef captures(none) %0, ptr noundef captures(none) %1, i32 noundef %2, i32 noundef %3) local_unnamed_addr #6 {
  %5 = getelementptr i8, ptr %1, i64 4
  %.val1420 = load i32, ptr %5, align 4, !tbaa !3
  %6 = icmp sgt i32 %.val1420, 0
  br i1 %6, label %.lr.ph, label %._crit_edge

.lr.ph:                                           ; preds = %4
  %7 = getelementptr i8, ptr %1, i64 8
  %8 = zext nneg i32 %2 to i64
  %9 = shl nuw i64 1, %8
  %.not = icmp eq i32 %3, 0
  br i1 %.not, label %.lr.ph.split.us, label %.lr.ph.split

.lr.ph.split.us:                                  ; preds = %.lr.ph, %Abc_SuppGenFilter.exit.us
  %indvars.iv47 = phi i64 [ %indvars.iv.next48, %Abc_SuppGenFilter.exit.us ], [ 0, %.lr.ph ]
  %10 = tail call i64 @Abc_SuppFindOne(ptr noundef nonnull %1, i32 noundef %2)
  %11 = getelementptr inbounds nuw i64, ptr %0, i64 %indvars.iv47
  store i64 %10, ptr %11, align 8, !tbaa !12
  %.val.i.us = load i32, ptr %5, align 4, !tbaa !3
  %12 = icmp sgt i32 %.val.i.us, 0
  br i1 %12, label %.lr.ph.i.us, label %Abc_SuppGenFilter.exit.us.thread

Abc_SuppGenFilter.exit.us.thread:                 ; preds = %.lr.ph.split.us
  store i32 0, ptr %5, align 4, !tbaa !3
  %indvars.iv.next4851 = add nuw nsw i64 %indvars.iv47, 1
  br label %._crit_edge.loopexit

.lr.ph.i.us:                                      ; preds = %.lr.ph.split.us
  %.val12.i.us = load ptr, ptr %7, align 8, !tbaa !11
  %wide.trip.count.i.us = zext nneg i32 %.val.i.us to i64
  br label %13

13:                                               ; preds = %22, %.lr.ph.i.us
  %indvars.iv.i.us = phi i64 [ 0, %.lr.ph.i.us ], [ %indvars.iv.next.i.us, %22 ]
  %.015.i.us = phi i32 [ 0, %.lr.ph.i.us ], [ %.1.i.us, %22 ]
  %14 = getelementptr inbounds nuw i64, ptr %.val12.i.us, i64 %indvars.iv.i.us
  %15 = load i64, ptr %14, align 8, !tbaa !12
  %16 = and i64 %15, %9
  %17 = icmp eq i64 %16, 0
  br i1 %17, label %18, label %22

18:                                               ; preds = %13
  %19 = add nsw i32 %.015.i.us, 1
  %20 = sext i32 %.015.i.us to i64
  %21 = getelementptr inbounds i64, ptr %.val12.i.us, i64 %20
  store i64 %15, ptr %21, align 8, !tbaa !12
  br label %22

22:                                               ; preds = %18, %13
  %.1.i.us = phi i32 [ %19, %18 ], [ %.015.i.us, %13 ]
  %indvars.iv.next.i.us = add nuw nsw i64 %indvars.iv.i.us, 1
  %exitcond.not.i.us = icmp eq i64 %indvars.iv.next.i.us, %wide.trip.count.i.us
  br i1 %exitcond.not.i.us, label %Abc_SuppGenFilter.exit.us, label %13, !llvm.loop !32

Abc_SuppGenFilter.exit.us:                        ; preds = %22
  store i32 %.1.i.us, ptr %5, align 4, !tbaa !3
  %indvars.iv.next48 = add nuw nsw i64 %indvars.iv47, 1
  %23 = icmp sgt i32 %.1.i.us, 0
  br i1 %23, label %.lr.ph.split.us, label %._crit_edge.loopexit, !llvm.loop !33

.lr.ph.split:                                     ; preds = %.lr.ph
  %24 = icmp sgt i32 %2, 0
  br i1 %24, label %.lr.ph.split.split.us, label %.lr.ph.split.split

.lr.ph.split.split.us:                            ; preds = %.lr.ph.split, %Abc_SuppPrintMask.exit.loopexit.us
  %indvars.iv44 = phi i64 [ %indvars.iv.next45, %Abc_SuppPrintMask.exit.loopexit.us ], [ 0, %.lr.ph.split ]
  %25 = tail call i64 @Abc_SuppFindOne(ptr noundef nonnull %1, i32 noundef %2)
  %26 = getelementptr inbounds nuw i64, ptr %0, i64 %indvars.iv44
  store i64 %25, ptr %26, align 8, !tbaa !12
  %.val.i.us23 = load i32, ptr %5, align 4, !tbaa !3
  %27 = icmp sgt i32 %.val.i.us23, 0
  br i1 %27, label %.lr.ph.i.us24, label %Abc_SuppGenFilter.exit.us32

.lr.ph.i.us24:                                    ; preds = %.lr.ph.split.split.us
  %.val12.i.us25 = load ptr, ptr %7, align 8, !tbaa !11
  %wide.trip.count.i.us26 = zext nneg i32 %.val.i.us23 to i64
  br label %28

28:                                               ; preds = %37, %.lr.ph.i.us24
  %indvars.iv.i.us27 = phi i64 [ 0, %.lr.ph.i.us24 ], [ %indvars.iv.next.i.us30, %37 ]
  %.015.i.us28 = phi i32 [ 0, %.lr.ph.i.us24 ], [ %.1.i.us29, %37 ]
  %29 = getelementptr inbounds nuw i64, ptr %.val12.i.us25, i64 %indvars.iv.i.us27
  %30 = load i64, ptr %29, align 8, !tbaa !12
  %31 = and i64 %30, %9
  %32 = icmp eq i64 %31, 0
  br i1 %32, label %33, label %37

33:                                               ; preds = %28
  %34 = add nsw i32 %.015.i.us28, 1
  %35 = sext i32 %.015.i.us28 to i64
  %36 = getelementptr inbounds i64, ptr %.val12.i.us25, i64 %35
  store i64 %30, ptr %36, align 8, !tbaa !12
  br label %37

37:                                               ; preds = %33, %28
  %.1.i.us29 = phi i32 [ %34, %33 ], [ %.015.i.us28, %28 ]
  %indvars.iv.next.i.us30 = add nuw nsw i64 %indvars.iv.i.us27, 1
  %exitcond.not.i.us31 = icmp eq i64 %indvars.iv.next.i.us30, %wide.trip.count.i.us26
  br i1 %exitcond.not.i.us31, label %Abc_SuppGenFilter.exit.us32, label %28, !llvm.loop !32

Abc_SuppGenFilter.exit.us32:                      ; preds = %37, %.lr.ph.split.split.us
  %.0.lcssa.i.us33 = phi i32 [ 0, %.lr.ph.split.split.us ], [ %.1.i.us29, %37 ]
  store i32 %.0.lcssa.i.us33, ptr %5, align 4, !tbaa !3
  %38 = trunc nuw nsw i64 %indvars.iv44 to i32
  %39 = tail call i32 (ptr, ...) @printf(ptr noundef nonnull dereferenceable(1) @.str.5, i32 noundef %38)
  %.val.us = load i32, ptr %5, align 4, !tbaa !3
  %40 = tail call i32 (ptr, ...) @printf(ptr noundef nonnull dereferenceable(1) @.str.6, i32 noundef %.val.us)
  %41 = load i64, ptr %26, align 8, !tbaa !12
  br label %.lr.ph.i16.us

.lr.ph.i16.us:                                    ; preds = %.lr.ph.i16.us, %Abc_SuppGenFilter.exit.us32
  %indvars.iv.i17.us = phi i64 [ 0, %Abc_SuppGenFilter.exit.us32 ], [ %indvars.iv.next.i18.us, %.lr.ph.i16.us ]
  %42 = lshr i64 %41, %indvars.iv.i17.us
  %43 = trunc i64 %42 to i32
  %44 = and i32 %43, 1
  %45 = tail call i32 (ptr, ...) @printf(ptr noundef nonnull dereferenceable(1) @.str.2, i32 noundef %44)
  %indvars.iv.next.i18.us = add nuw nsw i64 %indvars.iv.i17.us, 1
  %exitcond.not.i19.us = icmp eq i64 %indvars.iv.next.i18.us, %8
  br i1 %exitcond.not.i19.us, label %Abc_SuppPrintMask.exit.loopexit.us, label %.lr.ph.i16.us, !llvm.loop !26

Abc_SuppPrintMask.exit.loopexit.us:               ; preds = %.lr.ph.i16.us
  %putchar.i.us = tail call i32 @putchar(i32 10)
  %indvars.iv.next45 = add nuw nsw i64 %indvars.iv44, 1
  %.val14.us34 = load i32, ptr %5, align 4, !tbaa !3
  %46 = icmp sgt i32 %.val14.us34, 0
  br i1 %46, label %.lr.ph.split.split.us, label %._crit_edge.loopexit39, !llvm.loop !33

.lr.ph.split.split:                               ; preds = %.lr.ph.split, %Abc_SuppGenFilter.exit
  %indvars.iv = phi i64 [ %indvars.iv.next, %Abc_SuppGenFilter.exit ], [ 0, %.lr.ph.split ]
  %47 = tail call i64 @Abc_SuppFindOne(ptr noundef nonnull %1, i32 noundef %2)
  %48 = getelementptr inbounds nuw i64, ptr %0, i64 %indvars.iv
  store i64 %47, ptr %48, align 8, !tbaa !12
  %.val.i = load i32, ptr %5, align 4, !tbaa !3
  %49 = icmp sgt i32 %.val.i, 0
  br i1 %49, label %.lr.ph.i, label %Abc_SuppGenFilter.exit

.lr.ph.i:                                         ; preds = %.lr.ph.split.split
  %.val12.i = load ptr, ptr %7, align 8, !tbaa !11
  %wide.trip.count.i = zext nneg i32 %.val.i to i64
  br label %50

50:                                               ; preds = %59, %.lr.ph.i
  %indvars.iv.i = phi i64 [ 0, %.lr.ph.i ], [ %indvars.iv.next.i, %59 ]
  %.015.i = phi i32 [ 0, %.lr.ph.i ], [ %.1.i, %59 ]
  %51 = getelementptr inbounds nuw i64, ptr %.val12.i, i64 %indvars.iv.i
  %52 = load i64, ptr %51, align 8, !tbaa !12
  %53 = and i64 %52, %9
  %54 = icmp eq i64 %53, 0
  br i1 %54, label %55, label %59

55:                                               ; preds = %50
  %56 = add nsw i32 %.015.i, 1
  %57 = sext i32 %.015.i to i64
  %58 = getelementptr inbounds i64, ptr %.val12.i, i64 %57
  store i64 %52, ptr %58, align 8, !tbaa !12
  br label %59

59:                                               ; preds = %55, %50
  %.1.i = phi i32 [ %56, %55 ], [ %.015.i, %50 ]
  %indvars.iv.next.i = add nuw nsw i64 %indvars.iv.i, 1
  %exitcond.not.i = icmp eq i64 %indvars.iv.next.i, %wide.trip.count.i
  br i1 %exitcond.not.i, label %Abc_SuppGenFilter.exit, label %50, !llvm.loop !32

Abc_SuppGenFilter.exit:                           ; preds = %59, %.lr.ph.split.split
  %.0.lcssa.i = phi i32 [ 0, %.lr.ph.split.split ], [ %.1.i, %59 ]
  store i32 %.0.lcssa.i, ptr %5, align 4, !tbaa !3
  %60 = trunc nuw nsw i64 %indvars.iv to i32
  %61 = tail call i32 (ptr, ...) @printf(ptr noundef nonnull dereferenceable(1) @.str.5, i32 noundef %60)
  %.val = load i32, ptr %5, align 4, !tbaa !3
  %62 = tail call i32 (ptr, ...) @printf(ptr noundef nonnull dereferenceable(1) @.str.6, i32 noundef %.val)
  %putchar.i = tail call i32 @putchar(i32 10)
  %indvars.iv.next = add nuw nsw i64 %indvars.iv, 1
  %.val14 = load i32, ptr %5, align 4, !tbaa !3
  %63 = icmp sgt i32 %.val14, 0
  br i1 %63, label %.lr.ph.split.split, label %._crit_edge.loopexit40, !llvm.loop !33

._crit_edge.loopexit:                             ; preds = %Abc_SuppGenFilter.exit.us, %Abc_SuppGenFilter.exit.us.thread
  %indvars.iv.next4852 = phi i64 [ %indvars.iv.next4851, %Abc_SuppGenFilter.exit.us.thread ], [ %indvars.iv.next48, %Abc_SuppGenFilter.exit.us ]
  %64 = trunc nuw i64 %indvars.iv.next4852 to i32
  br label %._crit_edge

._crit_edge.loopexit39:                           ; preds = %Abc_SuppPrintMask.exit.loopexit.us
  %65 = trunc nuw i64 %indvars.iv.next45 to i32
  br label %._crit_edge

._crit_edge.loopexit40:                           ; preds = %Abc_SuppGenFilter.exit
  %66 = trunc nuw i64 %indvars.iv.next to i32
  br label %._crit_edge

._crit_edge:                                      ; preds = %._crit_edge.loopexit40, %._crit_edge.loopexit39, %._crit_edge.loopexit, %4
  %.0.lcssa = phi i32 [ 0, %4 ], [ %64, %._crit_edge.loopexit ], [ %65, %._crit_edge.loopexit39 ], [ %66, %._crit_edge.loopexit40 ]
  ret i32 %.0.lcssa
}